target datalayout = "e-m:e-p270:32:32-p271:32:32-p272:64:64-i64:64-i128:128-f80:128-n8:16:32:64-S128"
target triple = "x86_64-pc-linux-gnu"

%struct.UConverter = type { ptr, ptr, ptr, ptr, ptr, ptr, ptr, i32, i8, i8, i8, i8, i8, [7 x i8], i32, i32, i32, i32, i8, i8, i8, i8, i8, i8, i8, i8, [8 x i8], [32 x i8], [2 x i16], [2 x i16], [32 x i16], i32, [19 x i16], [31 x i8], i8, i8, i8, i32 }
%struct.UConverterDataLMBCS = type { [20 x ptr], i8, i8 }
%struct.LMBCSClone = type { %struct.UConverter, %struct.UConverterDataLMBCS }

; Function Attrs: mustprogress uwtable
define internal noundef ptr @_ZL15_LMBCSSafeClonePK10UConverterPvPiP10UErrorCode(ptr noundef %0, ptr noundef %1, ptr noundef %2, ptr noundef %3) #0 {
  %5 = alloca ptr, align 8
  %6 = alloca ptr, align 8
  %7 = alloca ptr, align 8
  %8 = alloca ptr, align 8
  %9 = alloca ptr, align 8
  %10 = alloca ptr, align 8
  %11 = alloca ptr, align 8
  %12 = alloca i32, align 4
  %13 = alloca i32, align 4
  store ptr %0, ptr %6, align 8, !tbaa !3
  store ptr %1, ptr %7, align 8, !tbaa !8
  store ptr %2, ptr %8, align 8, !tbaa !55
  store ptr %3, ptr %9, align 8, !tbaa !8
  call void @llvm.lifetime.start.p0(i64 8, ptr %10) #9
  call void @llvm.lifetime.start.p0(i64 8, ptr %11) #9
  call void @llvm.lifetime.start.p0(i64 4, ptr %12) #9
  %14 = load ptr, ptr %8, align 8, !tbaa !55
  %15 = load i32, ptr %14, align 4, !tbaa !38
  %16 = icmp sle i32 %15, 0
  br i1 %16, label %17, label %19

17:                                               ; preds = %4
  %18 = load ptr, ptr %8, align 8, !tbaa !55
  store i32 456, ptr %18, align 4, !tbaa !38
  store ptr null, ptr %5, align 8
  store i32 1, ptr %13, align 4
  br label %63

19:                                               ; preds = %4
  %20 = load ptr, ptr %6, align 8, !tbaa !3
  %21 = getelementptr inbounds nuw %struct.UConverter, ptr %20, i32 0, i32 2
  %22 = load ptr, ptr %21, align 8, !tbaa !9
  store ptr %22, ptr %11, align 8, !tbaa !8
  %23 = load ptr, ptr %7, align 8, !tbaa !8
  store ptr %23, ptr %10, align 8, !tbaa !56
  br label %24

24:                                               ; preds = %19
  %25 = load ptr, ptr %10, align 8, !tbaa !56
  %26 = getelementptr inbounds nuw %struct.LMBCSClone, ptr %25, i32 0, i32 1
  %27 = load ptr, ptr %11, align 8, !tbaa !8
  call void @llvm.memcpy.p0.p0.i64(ptr align 8 %26, ptr align 8 %27, i64 168, i1 false)
  br label %28

28:                                               ; preds = %24
  br label %29

29:                                               ; preds = %28
  store i32 0, ptr %12, align 4, !tbaa !38
  br label %30

30:                                               ; preds = %49, %29
  %31 = load i32, ptr %12, align 4, !tbaa !38
  %32 = icmp sle i32 %31, 19
  br i1 %32, label %33, label %52

33:                                               ; preds = %30
  %34 = load ptr, ptr %11, align 8, !tbaa !8
  %35 = getelementptr inbounds nuw %struct.UConverterDataLMBCS, ptr %34, i32 0, i32 0
  %36 = load i32, ptr %12, align 4, !tbaa !38
  %37 = sext i32 %36 to i64
  %38 = getelementptr inbounds [20 x ptr], ptr %35, i64 0, i64 %37
  %39 = load ptr, ptr %38, align 8, !tbaa !16
  %40 = icmp ne ptr %39, null
  br i1 %40, label %41, label %48

41:                                               ; preds = %33
  %42 = load ptr, ptr %11, align 8, !tbaa !8
  %43 = getelementptr inbounds nuw %struct.UConverterDataLMBCS, ptr %42, i32 0, i32 0
  %44 = load i32, ptr %12, align 4, !tbaa !38
  %45 = sext i32 %44 to i64
  %46 = getelementptr inbounds [20 x ptr], ptr %43, i64 0, i64 %45
  %47 = load ptr, ptr %46, align 8, !tbaa !16
  call void @ucnv_incrementRefCount_77(ptr noundef %47)
  br label %48

48:                                               ; preds = %41, %33
  br label %49

49:                                               ; preds = %48
  %50 = load i32, ptr %12, align 4, !tbaa !38
  %51 = add nsw i32 %50, 1
  store i32 %51, ptr %12, align 4, !tbaa !38
  br label %30, !llvm.loop !58

52:                                               ; preds = %30
  %53 = load ptr, ptr %10, align 8, !tbaa !56
  %54 = getelementptr inbounds nuw %struct.LMBCSClone, ptr %53, i32 0, i32 1
  %55 = load ptr, ptr %10, align 8, !tbaa !56
  %56 = getelementptr inbounds nuw %struct.LMBCSClone, ptr %55, i32 0, i32 0
  %57 = getelementptr inbounds nuw %struct.UConverter, ptr %56, i32 0, i32 2
  store ptr %54, ptr %57, align 8, !tbaa !59
  %58 = load ptr, ptr %10, align 8, !tbaa !56
  %59 = getelementptr inbounds nuw %struct.LMBCSClone, ptr %58, i32 0, i32 0
  %60 = getelementptr inbounds nuw %struct.UConverter, ptr %59, i32 0, i32 10
  store i8 1, ptr %60, align 2, !tbaa !61
  %61 = load ptr, ptr %10, align 8, !tbaa !56
  %62 = getelementptr inbounds nuw %struct.LMBCSClone, ptr %61, i32 0, i32 0
  store ptr %62, ptr %5, align 8
  store i32 1, ptr %13, align 4
  br label %63

63:                                               ; preds = %52, %17
  call void @llvm.lifetime.end.p0(i64 4, ptr %12) #9
  call void @llvm.lifetime.end.p0(i64 8, ptr %11) #9
  call void @llvm.lifetime.end.p0(i64 8, ptr %10) #9
  %64 = load ptr, ptr %5, align 8
  ret ptr %64
}