; Function Attrs: mustprogress uwtable
define internal noundef ptr @_ZL15_LMBCSSafeClonePK10UConverterPvPiP10UErrorCode(ptr noundef readonly captures(none) %0, ptr noundef %1, ptr noundef captures(none) %2, ptr readnone captures(none) %3) #0 {
  %5 = load i32, ptr %2, align 4, !tbaa !32
  %6 = icmp slt i32 %5, 1
  br i1 %6, label %7, label %8

7:                                                ; preds = %4
  store i32 456, ptr %2, align 4, !tbaa !32
  br label %20

8:                                                ; preds = %4
  %9 = getelementptr inbounds nuw i8, ptr %0, i64 16
  %10 = load ptr, ptr %9, align 8, !tbaa !3
  %11 = getelementptr inbounds nuw i8, ptr %1, i64 288
  tail call void @llvm.memcpy.p0.p0.i64(ptr noundef nonnull align 8 dereferenceable(168) %11, ptr noundef nonnull align 8 dereferenceable(168) %10, i64 168, i1 false)
  br label %12

12:                                               ; preds = %8, %16
  %indvars.iv = phi i64 [ 0, %8 ], [ %indvars.iv.next, %16 ]
  %13 = getelementptr inbounds nuw [20 x ptr], ptr %10, i64 0, i64 %indvars.iv
  %14 = load ptr, ptr %13, align 8, !tbaa !12
  %.not = icmp eq ptr %14, null
  br i1 %.not, label %16, label %15

15:                                               ; preds = %12
  tail call void @ucnv_incrementRefCount_77(ptr noundef nonnull %14)
  br label %16

16:                                               ; preds = %12, %15
  %indvars.iv.next = add nuw nsw i64 %indvars.iv, 1
  %exitcond.not = icmp eq i64 %indvars.iv.next, 20
  br i1 %exitcond.not, label %17, label %12, !llvm.loop !55

17:                                               ; preds = %16
  %18 = getelementptr inbounds nuw i8, ptr %1, i64 16
  store ptr %11, ptr %18, align 8, !tbaa !56
  %19 = getelementptr inbounds nuw i8, ptr %1, i64 62
  store i8 1, ptr %19, align 2, !tbaa !58
  br label %20

20:                                               ; preds = %17, %7
  %.016 = phi ptr [ null, %7 ], [ %1, %17 ]
  ret ptr %.016
}